target datalayout = "e-m:e-p270:32:32-p271:32:32-p272:64:64-i64:64-i128:128-f80:128-n8:16:32:64-S128"
target triple = "x86_64-unknown-linux-gnu"

%"struct.llvh::fltSemantics" = type { i16, i16, i32, i32 }
%"class.llvh::APFloat" = type { [8 x i8], %"union.llvh::APFloat::Storage" }
%"union.llvh::APFloat::Storage" = type { %"class.llvh::detail::DoubleAPFloat", [8 x i8] }
%"class.llvh::detail::DoubleAPFloat" = type { ptr, %"class.std::unique_ptr" }
%"class.std::unique_ptr" = type { %"struct.std::__uniq_ptr_data" }
%"struct.std::__uniq_ptr_data" = type { %"class.std::__uniq_ptr_impl" }
%"class.std::__uniq_ptr_impl" = type { %"class.std::tuple" }
%"class.std::tuple" = type { %"struct.std::_Tuple_impl" }
%"struct.std::_Tuple_impl" = type { %"struct.std::_Head_base.3" }
%"struct.std::_Head_base.3" = type { ptr }

@_ZN4llvhL18semPPCDoubleDoubleE = internal constant %"struct.llvh::fltSemantics" { i16 -1, i16 0, i32 0, i32 0 }, align 4

; Function Attrs: mustprogress nounwind uwtable
define linkonce_odr hidden noundef nonnull align 8 dereferenceable(8) ptr @_ZNSt10_Head_baseILm0EPN4llvh7APFloatELb0EE7_M_headERKS3_(ptr noundef nonnull align 8 dereferenceable(8) %__b) #1 comdat align 2 {
entry:
  %__b.addr = alloca ptr, align 8
  store ptr %__b, ptr %__b.addr, align 8
  %0 = load ptr, ptr %__b.addr, align 8
  %_M_head_impl = getelementptr inbounds %"struct.std::_Head_base.3", ptr %0, i32 0, i32 0
  ret ptr %_M_head_impl
}

; Function Attrs: mustprogress nounwind uwtable
define linkonce_odr hidden noundef nonnull align 8 dereferenceable(8) ptr @_ZNSt11_Tuple_implILm0EJPN4llvh7APFloatESt14default_deleteIA_S1_EEE7_M_headERKS6_(ptr noundef nonnull align 8 dereferenceable(8) %__t) #1 comdat align 2 {
entry:
  %__t.addr = alloca ptr, align 8
  store ptr %__t, ptr %__t.addr, align 8
  %0 = load ptr, ptr %__t.addr, align 8
  %call = call noundef nonnull align 8 dereferenceable(8) ptr @_ZNSt10_Head_baseILm0EPN4llvh7APFloatELb0EE7_M_headERKS3_(ptr noundef nonnull align 8 dereferenceable(8) %0) #10
  ret ptr %call
}

; Function Attrs: mustprogress nounwind uwtable
define linkonce_odr hidden noundef nonnull align 8 dereferenceable(8) ptr @_ZSt12__get_helperILm0EPN4llvh7APFloatEJSt14default_deleteIA_S1_EEERKT0_RKSt11_Tuple_implIXT_EJS6_DpT1_EE(ptr noundef nonnull align 8 dereferenceable(8) %__t) #1 comdat {
entry:
  %__t.addr = alloca ptr, align 8
  store ptr %__t, ptr %__t.addr, align 8
  %0 = load ptr, ptr %__t.addr, align 8
  %call = call noundef nonnull align 8 dereferenceable(8) ptr @_ZNSt11_Tuple_implILm0EJPN4llvh7APFloatESt14default_deleteIA_S1_EEE7_M_headERKS6_(ptr noundef nonnull align 8 dereferenceable(8) %0) #10
  ret ptr %call
}

; Function Attrs: mustprogress nounwind uwtable
define linkonce_odr hidden noundef nonnull align 8 dereferenceable(8) ptr @_ZSt3getILm0EJPN4llvh7APFloatESt14default_deleteIA_S1_EEERKNSt13tuple_elementIXT_ESt5tupleIJDpT0_EEE4typeERKSA_(ptr noundef nonnull align 8 dereferenceable(8) %__t) #1 comdat {
entry:
  %__t.addr = alloca ptr, align 8
  store ptr %__t, ptr %__t.addr, align 8
  %0 = load ptr, ptr %__t.addr, align 8
  %call = call noundef nonnull align 8 dereferenceable(8) ptr @_ZSt12__get_helperILm0EPN4llvh7APFloatEJSt14default_deleteIA_S1_EEERKT0_RKSt11_Tuple_implIXT_EJS6_DpT1_EE(ptr noundef nonnull align 8 dereferenceable(8) %0) #10
  ret ptr %call
}

; Function Attrs: mustprogress nounwind willreturn memory(none) uwtable
define hidden noundef nonnull align 4 dereferenceable(12) ptr @_ZN4llvh11APFloatBase15PPCDoubleDoubleEv() #0 align 2 {
entry:
  ret ptr @_ZN4llvhL18semPPCDoubleDoubleE
}

; Function Attrs: mustprogress nounwind uwtable
define linkonce_odr hidden noundef ptr @_ZNKSt15__uniq_ptr_implIN4llvh7APFloatESt14default_deleteIA_S1_EE6_M_ptrEv(ptr noundef nonnull align 8 dereferenceable(8) %this) #1 comdat align 2 {
entry:
  %this.addr = alloca ptr, align 8
  store ptr %this, ptr %this.addr, align 8
  %this1 = load ptr, ptr %this.addr, align 8
  %_M_t = getelementptr inbounds %"class.std::__uniq_ptr_impl", ptr %this1, i32 0, i32 0
  %call = call noundef nonnull align 8 dereferenceable(8) ptr @_ZSt3getILm0EJPN4llvh7APFloatESt14default_deleteIA_S1_EEERKNSt13tuple_elementIXT_ESt5tupleIJDpT0_EEE4typeERKSA_(ptr noundef nonnull align 8 dereferenceable(8) %_M_t) #10
  %0 = load ptr, ptr %call, align 8
  ret ptr %0
}

; Function Attrs: mustprogress nounwind uwtable
define linkonce_odr hidden noundef zeroext i1 @_ZN4llvh7APFloat10usesLayoutINS_6detail13DoubleAPFloatEEEbRKNS_12fltSemanticsE(ptr noundef nonnull align 4 dereferenceable(12) %Semantics) #1 comdat align 2 {
entry:
  %Semantics.addr = alloca ptr, align 8
  store ptr %Semantics, ptr %Semantics.addr, align 8
  %0 = load ptr, ptr %Semantics.addr, align 8
  %call = call noundef nonnull align 4 dereferenceable(12) ptr @_ZN4llvh11APFloatBase15PPCDoubleDoubleEv() #16
  %cmp = icmp eq ptr %0, %call
  ret i1 %cmp
}

; Function Attrs: mustprogress nounwind uwtable
define linkonce_odr hidden noundef zeroext i1 @_ZN4llvh7APFloat10usesLayoutINS_6detail9IEEEFloatEEEbRKNS_12fltSemanticsE(ptr noundef nonnull align 4 dereferenceable(12) %Semantics) #1 comdat align 2 {
entry:
  %Semantics.addr = alloca ptr, align 8
  store ptr %Semantics, ptr %Semantics.addr, align 8
  %0 = load ptr, ptr %Semantics.addr, align 8
  %call = call noundef nonnull align 4 dereferenceable(12) ptr @_ZN4llvh11APFloatBase15PPCDoubleDoubleEv() #16
  %cmp = icmp ne ptr %0, %call
  ret i1 %cmp
}

; Function Attrs: mustprogress nounwind uwtable
define linkonce_odr hidden noundef nonnull align 4 dereferenceable(12) ptr @_ZNK4llvh7APFloat12getSemanticsEv(ptr noundef nonnull align 8 dereferenceable(32) %this) #1 comdat align 2 {
entry:
  %this.addr = alloca ptr, align 8
  store ptr %this, ptr %this.addr, align 8
  %this1 = load ptr, ptr %this.addr, align 8
  %U = getelementptr inbounds %"class.llvh::APFloat", ptr %this1, i32 0, i32 1
  %0 = load ptr, ptr %U, align 8
  ret ptr %0
}

; Function Attrs: mustprogress nounwind uwtable
define linkonce_odr hidden noundef ptr @_ZNKSt10unique_ptrIA_N4llvh7APFloatESt14default_deleteIS2_EE3getEv(ptr noundef nonnull align 8 dereferenceable(8) %this) #1 comdat align 2 {
entry:
  %this.addr = alloca ptr, align 8
  store ptr %this, ptr %this.addr, align 8
  %this1 = load ptr, ptr %this.addr, align 8
  %_M_t = getelementptr inbounds %"class.std::unique_ptr", ptr %this1, i32 0, i32 0
  %call = call noundef ptr @_ZNKSt15__uniq_ptr_implIN4llvh7APFloatESt14default_deleteIA_S1_EE6_M_ptrEv(ptr noundef nonnull align 8 dereferenceable(8) %_M_t) #10
  ret ptr %call
}

; Function Attrs: mustprogress nounwind uwtable
define linkonce_odr hidden noundef i32 @_ZNK4llvh7APFloat7compareERKS0_(ptr noundef nonnull align 8 dereferenceable(32) %this, ptr noundef nonnull align 8 dereferenceable(32) %RHS) #1 comdat align 2 {
entry:
  %retval = alloca i32, align 4
  %this.addr = alloca ptr, align 8
  %RHS.addr = alloca ptr, align 8
  store ptr %this, ptr %this.addr, align 8
  store ptr %RHS, ptr %RHS.addr, align 8
  %this1 = load ptr, ptr %this.addr, align 8
  %call = call noundef nonnull align 4 dereferenceable(12) ptr @_ZNK4llvh7APFloat12getSemanticsEv(ptr noundef nonnull align 8 dereferenceable(32) %this1)
  %call2 = call noundef zeroext i1 @_ZN4llvh7APFloat10usesLayoutINS_6detail9IEEEFloatEEEbRKNS_12fltSemanticsE(ptr noundef nonnull align 4 dereferenceable(12) %call)
  br i1 %call2, label %if.then, label %if.end

if.then:                                          ; preds = %entry
  %U = getelementptr inbounds %"class.llvh::APFloat", ptr %this1, i32 0, i32 1
  %0 = load ptr, ptr %RHS.addr, align 8
  %U3 = getelementptr inbounds %"class.llvh::APFloat", ptr %0, i32 0, i32 1
  %call4 = call noundef i32 @_ZNK4llvh6detail9IEEEFloat7compareERKS1_(ptr noundef nonnull align 8 dereferenceable(24) %U, ptr noundef nonnull align 8 dereferenceable(24) %U3)
  store i32 %call4, ptr %retval, align 4
  br label %return

if.end:                                           ; preds = %entry
  %call5 = call noundef nonnull align 4 dereferenceable(12) ptr @_ZNK4llvh7APFloat12getSemanticsEv(ptr noundef nonnull align 8 dereferenceable(32) %this1)
  %call6 = call noundef zeroext i1 @_ZN4llvh7APFloat10usesLayoutINS_6detail13DoubleAPFloatEEEbRKNS_12fltSemanticsE(ptr noundef nonnull align 4 dereferenceable(12) %call5)
  br i1 %call6, label %if.then7, label %if.end11

if.then7:                                         ; preds = %if.end
  %U8 = getelementptr inbounds %"class.llvh::APFloat", ptr %this1, i32 0, i32 1
  %1 = load ptr, ptr %RHS.addr, align 8
  %U9 = getelementptr inbounds %"class.llvh::APFloat", ptr %1, i32 0, i32 1
  %call10 = call noundef i32 @_ZNK4llvh6detail13DoubleAPFloat7compareERKS1_(ptr noundef nonnull align 8 dereferenceable(16) %U8, ptr noundef nonnull align 8 dereferenceable(16) %U9)
  store i32 %call10, ptr %retval, align 4
  br label %return

if.end11:                                         ; preds = %if.end
  unreachable

return:                                           ; preds = %if.then7, %if.then
  %2 = load i32, ptr %retval, align 4
  ret i32 %2
}

; Function Attrs: mustprogress nounwind uwtable
define linkonce_odr hidden noundef nonnull align 8 dereferenceable(32) ptr @_ZNKSt10unique_ptrIA_N4llvh7APFloatESt14default_deleteIS2_EEixEm(ptr noundef nonnull align 8 dereferenceable(8) %this, i64 noundef %__i) #1 comdat align 2 {
entry:
  %this.addr = alloca ptr, align 8
  %__i.addr = alloca i64, align 8
  store ptr %this, ptr %this.addr, align 8
  store i64 %__i, ptr %__i.addr, align 8
  %this1 = load ptr, ptr %this.addr, align 8
  br label %do.body

do.body:                                          ; preds = %entry
  br label %do.end

do.end:                                           ; preds = %do.body
  %call = call noundef ptr @_ZNKSt10unique_ptrIA_N4llvh7APFloatESt14default_deleteIS2_EE3getEv(ptr noundef nonnull align 8 dereferenceable(8) %this1) #10
  %0 = load i64, ptr %__i.addr, align 8
  %arrayidx = getelementptr inbounds %"class.llvh::APFloat", ptr %call, i64 %0
  ret ptr %arrayidx
}

; Function Attrs: mustprogress nounwind uwtable
define hidden noundef i32 @_ZNK4llvh6detail13DoubleAPFloat7compareERKS1_(ptr noundef nonnull align 8 dereferenceable(16) %this, ptr noundef nonnull align 8 dereferenceable(16) %RHS) #1 align 2 {
entry:
  %retval = alloca i32, align 4
  %this.addr = alloca ptr, align 8
  %RHS.addr = alloca ptr, align 8
  %Result = alloca i32, align 4
  store ptr %this, ptr %this.addr, align 8
  store ptr %RHS, ptr %RHS.addr, align 8
  %this1 = load ptr, ptr %this.addr, align 8
  %Floats = getelementptr inbounds %"class.llvh::detail::DoubleAPFloat", ptr %this1, i32 0, i32 1
  %call = call noundef nonnull align 8 dereferenceable(32) ptr @_ZNKSt10unique_ptrIA_N4llvh7APFloatESt14default_deleteIS2_EEixEm(ptr noundef nonnull align 8 dereferenceable(8) %Floats, i64 noundef 0)
  %0 = load ptr, ptr %RHS.addr, align 8
  %Floats2 = getelementptr inbounds %"class.llvh::detail::DoubleAPFloat", ptr %0, i32 0, i32 1
  %call3 = call noundef nonnull align 8 dereferenceable(32) ptr @_ZNKSt10unique_ptrIA_N4llvh7APFloatESt14default_deleteIS2_EEixEm(ptr noundef nonnull align 8 dereferenceable(8) %Floats2, i64 noundef 0)
  %call4 = call noundef i32 @_ZNK4llvh7APFloat7compareERKS0_(ptr noundef nonnull align 8 dereferenceable(32) %call, ptr noundef nonnull align 8 dereferenceable(32) %call3)
  store i32 %call4, ptr %Result, align 4
  %1 = load i32, ptr %Result, align 4
  %cmp = icmp eq i32 %1, 1
  br i1 %cmp, label %if.then, label %if.end

if.then:                                          ; preds = %entry
  %Floats5 = getelementptr inbounds %"class.llvh::detail::DoubleAPFloat", ptr %this1, i32 0, i32 1
  %call6 = call noundef nonnull align 8 dereferenceable(32) ptr @_ZNKSt10unique_ptrIA_N4llvh7APFloatESt14default_deleteIS2_EEixEm(ptr noundef nonnull align 8 dereferenceable(8) %Floats5, i64 noundef 1)
  %2 = load ptr, ptr %RHS.addr, align 8
  %Floats7 = getelementptr inbounds %"class.llvh::detail::DoubleAPFloat", ptr %2, i32 0, i32 1
  %call8 = call noundef nonnull align 8 dereferenceable(32) ptr @_ZNKSt10unique_ptrIA_N4llvh7APFloatESt14default_deleteIS2_EEixEm(ptr noundef nonnull align 8 dereferenceable(8) %Floats7, i64 noundef 1)
  %call9 = call noundef i32 @_ZNK4llvh7APFloat7compareERKS0_(ptr noundef nonnull align 8 dereferenceable(32) %call6, ptr noundef nonnull align 8 dereferenceable(32) %call8)
  store i32 %call9, ptr %retval, align 4
  br label %return

if.end:                                           ; preds = %entry
  %3 = load i32, ptr %Result, align 4
  store i32 %3, ptr %retval, align 4
  br label %return

return:                                           ; preds = %if.end, %if.then
  %4 = load i32, ptr %retval, align 4
  ret i32 %4
}