; Function Attrs: mustprogress nounwind uwtable
define hidden noundef range(i32 0, 4) i32 @_ZNK4llvh6detail13DoubleAPFloat7compareERKS1_(ptr noundef nonnull readonly align 8 captures(none) dereferenceable(16) %this, ptr noundef nonnull readonly align 8 captures(none) dereferenceable(16) %RHS) local_unnamed_addr #2 align 2 {
entry:
  br label %tailrecurse

tailrecurse:                                      ; preds = %if.then, %entry
  %this.tr = phi ptr [ %this, %entry ], [ %U.i24, %if.then ]
  %RHS.tr = phi ptr [ %RHS, %entry ], [ %U9.i10, %if.then ]
  %Floats = getelementptr inbounds nuw i8, ptr %this.tr, i64 8
  %0 = load ptr, ptr %Floats, align 8
  %Floats2 = getelementptr inbounds nuw i8, ptr %RHS.tr, i64 8
  %1 = load ptr, ptr %Floats2, align 8
  %U.i20 = getelementptr inbounds nuw i8, ptr %0, i64 8
  %2 = load ptr, ptr %U.i20, align 8
  %cmp.i19.not = icmp eq ptr %2, @_ZN4llvhL18semPPCDoubleDoubleE
  %U9.i = getelementptr inbounds nuw i8, ptr %1, i64 8
  br i1 %cmp.i19.not, label %if.end.i, label %if.then.i

if.then.i:                                        ; preds = %tailrecurse
  %call4.i = tail call noundef i32 @_ZNK4llvh6detail9IEEEFloat7compareERKS1_(ptr noundef nonnull align 8 dereferenceable(24) %U.i20, ptr noundef nonnull align 8 dereferenceable(24) %U9.i)
  br label %_ZNK4llvh7APFloat7compareERKS0_.exit

if.end.i:                                         ; preds = %tailrecurse
  %call10.i = tail call noundef i32 @_ZNK4llvh6detail13DoubleAPFloat7compareERKS1_(ptr noundef nonnull align 8 dereferenceable(16) %U.i20, ptr noundef nonnull align 8 dereferenceable(16) %U9.i)
  br label %_ZNK4llvh7APFloat7compareERKS0_.exit

_ZNK4llvh7APFloat7compareERKS0_.exit:             ; preds = %if.then.i, %if.end.i
  %retval.0.i = phi i32 [ %call4.i, %if.then.i ], [ %call10.i, %if.end.i ]
  %cmp = icmp eq i32 %retval.0.i, 1
  br i1 %cmp, label %if.then, label %return

if.then:                                          ; preds = %_ZNK4llvh7APFloat7compareERKS0_.exit
  %3 = load ptr, ptr %Floats, align 8
  %4 = load ptr, ptr %Floats2, align 8
  %U.i24 = getelementptr inbounds nuw i8, ptr %3, i64 40
  %5 = load ptr, ptr %U.i24, align 8
  %cmp.i23.not = icmp eq ptr %5, @_ZN4llvhL18semPPCDoubleDoubleE
  %U9.i10 = getelementptr inbounds nuw i8, ptr %4, i64 40
  br i1 %cmp.i23.not, label %tailrecurse, label %if.then.i13

if.then.i13:                                      ; preds = %if.then
  %call4.i16 = tail call noundef i32 @_ZNK4llvh6detail9IEEEFloat7compareERKS1_(ptr noundef nonnull align 8 dereferenceable(24) %U.i24, ptr noundef nonnull align 8 dereferenceable(24) %U9.i10)
  br label %return

return:                                           ; preds = %_ZNK4llvh7APFloat7compareERKS0_.exit, %if.then.i13
  %retval.0 = phi i32 [ %call4.i16, %if.then.i13 ], [ %retval.0.i, %_ZNK4llvh7APFloat7compareERKS0_.exit ]
  ret i32 %retval.0
}